target datalayout = "e-m:e-p270:32:32-p271:32:32-p272:64:64-i64:64-i128:128-f80:128-n8:16:32:64-S128"
target triple = "x86_64-pc-linux-gnu"

%struct.strbuf = type { i64, i64, ptr }
%struct.config_store_data = type { i64, ptr, i32, ptr, ptr, i32, ptr, i32, i32, ptr, i32, i32, i8 }

@.str.8 = private unnamed_addr constant [1 x i8] zeroinitializer, align 1
@__const.write_pair.sb = private unnamed_addr constant %struct.strbuf { i64 0, i64 0, ptr @strbuf_slopbuf }, align 8
@.str.236 = private unnamed_addr constant [2 x i8] c"\22\00", align 1
@.str.237 = private unnamed_addr constant [9 x i8] c"\09%s = %s\00", align 1
@.str.238 = private unnamed_addr constant [3 x i8] c"\\n\00", align 1
@.str.239 = private unnamed_addr constant [3 x i8] c"\\t\00", align 1
@.str.240 = private unnamed_addr constant [6 x i8] c"%s%s\0A\00", align 1
@.str.241 = private unnamed_addr constant [4 x i8] c"%s\0A\00", align 1

; Function Attrs: inlinehint nounwind uwtable
define internal i64 @strbuf_avail(ptr noundef %0) #6 {
  %2 = alloca ptr, align 8
  store ptr %0, ptr %2, align 8, !tbaa !33
  %3 = load ptr, ptr %2, align 8, !tbaa !33
  %4 = getelementptr inbounds nuw %struct.strbuf, ptr %3, i32 0, i32 0
  %5 = load i64, ptr %4, align 8, !tbaa !36
  %6 = icmp ne i64 %5, 0
  br i1 %6, label %7, label %16

7:                                                ; preds = %1
  %8 = load ptr, ptr %2, align 8, !tbaa !33
  %9 = getelementptr inbounds nuw %struct.strbuf, ptr %8, i32 0, i32 0
  %10 = load i64, ptr %9, align 8, !tbaa !36
  %11 = load ptr, ptr %2, align 8, !tbaa !33
  %12 = getelementptr inbounds nuw %struct.strbuf, ptr %11, i32 0, i32 1
  %13 = load i64, ptr %12, align 8, !tbaa !35
  %14 = sub i64 %10, %13
  %15 = sub i64 %14, 1
  br label %17

16:                                               ; preds = %1
  br label %17

17:                                               ; preds = %16, %7
  %18 = phi i64 [ %15, %7 ], [ 0, %16 ]
  ret i64 %18
}

; Function Attrs: inlinehint nounwind uwtable
define internal void @strbuf_addch(ptr noundef %0, i32 noundef %1) #6 {
  %3 = alloca ptr, align 8
  %4 = alloca i32, align 4
  store ptr %0, ptr %3, align 8, !tbaa !33
  store i32 %1, ptr %4, align 4, !tbaa !13
  %5 = load ptr, ptr %3, align 8, !tbaa !33
  %6 = call i64 @strbuf_avail(ptr noundef %5)
  %7 = icmp ne i64 %6, 0
  br i1 %7, label %10, label %8

8:                                                ; preds = %2
  %9 = load ptr, ptr %3, align 8, !tbaa !33
  call void @strbuf_grow(ptr noundef %9, i64 noundef 1)
  br label %10

10:                                               ; preds = %8, %2
  %11 = load i32, ptr %4, align 4, !tbaa !13
  %12 = trunc i32 %11 to i8
  %13 = load ptr, ptr %3, align 8, !tbaa !33
  %14 = getelementptr inbounds nuw %struct.strbuf, ptr %13, i32 0, i32 2
  %15 = load ptr, ptr %14, align 8, !tbaa !10
  %16 = load ptr, ptr %3, align 8, !tbaa !33
  %17 = getelementptr inbounds nuw %struct.strbuf, ptr %16, i32 0, i32 1
  %18 = load i64, ptr %17, align 8, !tbaa !35
  %19 = add i64 %18, 1
  store i64 %19, ptr %17, align 8, !tbaa !35
  %20 = getelementptr inbounds nuw i8, ptr %15, i64 %18
  store i8 %12, ptr %20, align 1, !tbaa !9
  %21 = load ptr, ptr %3, align 8, !tbaa !33
  %22 = getelementptr inbounds nuw %struct.strbuf, ptr %21, i32 0, i32 2
  %23 = load ptr, ptr %22, align 8, !tbaa !10
  %24 = load ptr, ptr %3, align 8, !tbaa !33
  %25 = getelementptr inbounds nuw %struct.strbuf, ptr %24, i32 0, i32 1
  %26 = load i64, ptr %25, align 8, !tbaa !35
  %27 = getelementptr inbounds nuw i8, ptr %23, i64 %26
  store i8 0, ptr %27, align 1, !tbaa !9
  ret void
}

; Function Attrs: inlinehint nounwind uwtable
define internal void @strbuf_addstr(ptr noundef %0, ptr noundef %1) #6 {
  %3 = alloca ptr, align 8
  %4 = alloca ptr, align 8
  store ptr %0, ptr %3, align 8, !tbaa !33
  store ptr %1, ptr %4, align 8, !tbaa !4
  %5 = load ptr, ptr %3, align 8, !tbaa !33
  %6 = load ptr, ptr %4, align 8, !tbaa !4
  %7 = load ptr, ptr %4, align 8, !tbaa !4
  %8 = call i64 @strlen(ptr noundef %7) #14
  call void @strbuf_add(ptr noundef %5, ptr noundef %6, i64 noundef %8)
  ret void
}

; Function Attrs: nounwind uwtable
define internal i64 @write_pair(i32 noundef %0, ptr noundef %1, ptr noundef %2, ptr noundef %3, ptr noundef %4) #0 {
  %6 = alloca i32, align 4
  %7 = alloca ptr, align 8
  %8 = alloca ptr, align 8
  %9 = alloca ptr, align 8
  %10 = alloca ptr, align 8
  %11 = alloca i32, align 4
  %12 = alloca i64, align 8
  %13 = alloca ptr, align 8
  %14 = alloca %struct.strbuf, align 8
  store i32 %0, ptr %6, align 4, !tbaa !13
  store ptr %1, ptr %7, align 8, !tbaa !4
  store ptr %2, ptr %8, align 8, !tbaa !4
  store ptr %3, ptr %9, align 8, !tbaa !4
  store ptr %4, ptr %10, align 8, !tbaa !177
  call void @llvm.lifetime.start.p0(i64 4, ptr %11) #13
  call void @llvm.lifetime.start.p0(i64 8, ptr %12) #13
  call void @llvm.lifetime.start.p0(i64 8, ptr %13) #13
  store ptr @.str.8, ptr %13, align 8, !tbaa !4
  call void @llvm.lifetime.start.p0(i64 24, ptr %14) #13
  call void @llvm.memcpy.p0.p0.i64(ptr align 8 %14, ptr align 8 @__const.write_pair.sb, i64 24, i1 false)
  %15 = load ptr, ptr %8, align 8, !tbaa !4
  %16 = getelementptr inbounds i8, ptr %15, i64 0
  %17 = load i8, ptr %16, align 1, !tbaa !9
  %18 = sext i8 %17 to i32
  %19 = icmp eq i32 %18, 32
  br i1 %19, label %20, label %21

20:                                               ; preds = %5
  store ptr @.str.236, ptr %13, align 8, !tbaa !4
  br label %21

21:                                               ; preds = %20, %5
  store i32 0, ptr %11, align 4, !tbaa !13
  br label %22

22:                                               ; preds = %47, %21
  %23 = load ptr, ptr %8, align 8, !tbaa !4
  %24 = load i32, ptr %11, align 4, !tbaa !13
  %25 = sext i32 %24 to i64
  %26 = getelementptr inbounds i8, ptr %23, i64 %25
  %27 = load i8, ptr %26, align 1, !tbaa !9
  %28 = icmp ne i8 %27, 0
  br i1 %28, label %29, label %50

29:                                               ; preds = %22
  %30 = load ptr, ptr %8, align 8, !tbaa !4
  %31 = load i32, ptr %11, align 4, !tbaa !13
  %32 = sext i32 %31 to i64
  %33 = getelementptr inbounds i8, ptr %30, i64 %32
  %34 = load i8, ptr %33, align 1, !tbaa !9
  %35 = sext i8 %34 to i32
  %36 = icmp eq i32 %35, 59
  br i1 %36, label %45, label %37

37:                                               ; preds = %29
  %38 = load ptr, ptr %8, align 8, !tbaa !4
  %39 = load i32, ptr %11, align 4, !tbaa !13
  %40 = sext i32 %39 to i64
  %41 = getelementptr inbounds i8, ptr %38, i64 %40
  %42 = load i8, ptr %41, align 1, !tbaa !9
  %43 = sext i8 %42 to i32
  %44 = icmp eq i32 %43, 35
  br i1 %44, label %45, label %46

45:                                               ; preds = %37, %29
  store ptr @.str.236, ptr %13, align 8, !tbaa !4
  br label %46

46:                                               ; preds = %45, %37
  br label %47

47:                                               ; preds = %46
  %48 = load i32, ptr %11, align 4, !tbaa !13
  %49 = add nsw i32 %48, 1
  store i32 %49, ptr %11, align 4, !tbaa !13
  br label %22, !llvm.loop !179

50:                                               ; preds = %22
  %51 = load i32, ptr %11, align 4, !tbaa !13
  %52 = icmp ne i32 %51, 0
  br i1 %52, label %53, label %63

53:                                               ; preds = %50
  %54 = load ptr, ptr %8, align 8, !tbaa !4
  %55 = load i32, ptr %11, align 4, !tbaa !13
  %56 = sub nsw i32 %55, 1
  %57 = sext i32 %56 to i64
  %58 = getelementptr inbounds i8, ptr %54, i64 %57
  %59 = load i8, ptr %58, align 1, !tbaa !9
  %60 = sext i8 %59 to i32
  %61 = icmp eq i32 %60, 32
  br i1 %61, label %62, label %63

62:                                               ; preds = %53
  store ptr @.str.236, ptr %13, align 8, !tbaa !4
  br label %63

63:                                               ; preds = %62, %53, %50
  %64 = load ptr, ptr %7, align 8, !tbaa !4
  %65 = load ptr, ptr %10, align 8, !tbaa !177
  %66 = getelementptr inbounds nuw %struct.config_store_data, ptr %65, i32 0, i32 0
  %67 = load i64, ptr %66, align 8, !tbaa !180
  %68 = getelementptr inbounds nuw i8, ptr %64, i64 %67
  %69 = getelementptr inbounds i8, ptr %68, i64 1
  %70 = load ptr, ptr %13, align 8, !tbaa !4
  call void (ptr, ptr, ...) @strbuf_addf(ptr noundef %14, ptr noundef @.str.237, ptr noundef %69, ptr noundef %70)
  store i32 0, ptr %11, align 4, !tbaa !13
  br label %71

71:                                               ; preds = %96, %63
  %72 = load ptr, ptr %8, align 8, !tbaa !4
  %73 = load i32, ptr %11, align 4, !tbaa !13
  %74 = sext i32 %73 to i64
  %75 = getelementptr inbounds i8, ptr %72, i64 %74
  %76 = load i8, ptr %75, align 1, !tbaa !9
  %77 = icmp ne i8 %76, 0
  br i1 %77, label %78, label %99

78:                                               ; preds = %71
  %79 = load ptr, ptr %8, align 8, !tbaa !4
  %80 = load i32, ptr %11, align 4, !tbaa !13
  %81 = sext i32 %80 to i64
  %82 = getelementptr inbounds i8, ptr %79, i64 %81
  %83 = load i8, ptr %82, align 1, !tbaa !9
  %84 = sext i8 %83 to i32
  switch i32 %84, label %88 [
    i32 10, label %85
    i32 9, label %86
    i32 34, label %87
    i32 92, label %87
  ]

85:                                               ; preds = %78
  call void @strbuf_addstr(ptr noundef %14, ptr noundef @.str.238)
  br label %95

86:                                               ; preds = %78
  call void @strbuf_addstr(ptr noundef %14, ptr noundef @.str.239)
  br label %95

87:                                               ; preds = %78, %78
  call void @strbuf_addch(ptr noundef %14, i32 noundef 92)
  br label %88

88:                                               ; preds = %78, %87
  %89 = load ptr, ptr %8, align 8, !tbaa !4
  %90 = load i32, ptr %11, align 4, !tbaa !13
  %91 = sext i32 %90 to i64
  %92 = getelementptr inbounds i8, ptr %89, i64 %91
  %93 = load i8, ptr %92, align 1, !tbaa !9
  %94 = sext i8 %93 to i32
  call void @strbuf_addch(ptr noundef %14, i32 noundef %94)
  br label %95

95:                                               ; preds = %88, %86, %85
  br label %96

96:                                               ; preds = %95
  %97 = load i32, ptr %11, align 4, !tbaa !13
  %98 = add nsw i32 %97, 1
  store i32 %98, ptr %11, align 4, !tbaa !13
  br label %71, !llvm.loop !181

99:                                               ; preds = %71
  %100 = load ptr, ptr %9, align 8, !tbaa !4
  %101 = icmp ne ptr %100, null
  br i1 %101, label %102, label %105

102:                                              ; preds = %99
  %103 = load ptr, ptr %13, align 8, !tbaa !4
  %104 = load ptr, ptr %9, align 8, !tbaa !4
  call void (ptr, ptr, ...) @strbuf_addf(ptr noundef %14, ptr noundef @.str.240, ptr noundef %103, ptr noundef %104)
  br label %107

105:                                              ; preds = %99
  %106 = load ptr, ptr %13, align 8, !tbaa !4
  call void (ptr, ptr, ...) @strbuf_addf(ptr noundef %14, ptr noundef @.str.241, ptr noundef %106)
  br label %107

107:                                              ; preds = %105, %102
  %108 = load i32, ptr %6, align 4, !tbaa !13
  %109 = getelementptr inbounds nuw %struct.strbuf, ptr %14, i32 0, i32 2
  %110 = load ptr, ptr %109, align 8, !tbaa !10
  %111 = getelementptr inbounds nuw %struct.strbuf, ptr %14, i32 0, i32 1
  %112 = load i64, ptr %111, align 8, !tbaa !35
  %113 = call i64 @write_in_full(i32 noundef %108, ptr noundef %110, i64 noundef %112)
  store i64 %113, ptr %12, align 8, !tbaa !19
  call void @strbuf_release(ptr noundef %14)
  %114 = load i64, ptr %12, align 8, !tbaa !19
  call void @llvm.lifetime.end.p0(i64 24, ptr %14) #13
  call void @llvm.lifetime.end.p0(i64 8, ptr %13) #13
  call void @llvm.lifetime.end.p0(i64 8, ptr %12) #13
  call void @llvm.lifetime.end.p0(i64 4, ptr %11) #13
  ret i64 %114
}