; Function Attrs: nounwind uwtable
define internal fastcc i64 @write_pair(i32 noundef range(i32 0, -2147483648) %0, ptr noundef %1, ptr noundef nonnull readonly captures(none) %2, ptr noundef %3, i64 %.0.val) unnamed_addr #0 {
  %5 = alloca %struct.strbuf, align 8
  call void @llvm.lifetime.start.p0(i64 24, ptr nonnull %5) #30
  call void @llvm.memcpy.p0.p0.i64(ptr noundef nonnull align 8 dereferenceable(24) %5, ptr noundef nonnull align 8 dereferenceable(24) @__const.repo_config_copy_or_rename_section_in_file.copystr, i64 24, i1 false)
  %6 = load i8, ptr %2, align 1, !tbaa !4
  %7 = icmp eq i8 %6, 32
  %spec.select = select i1 %7, ptr @.str.236, ptr @.str.8
  br label %8

8:                                                ; preds = %11, %4
  %9 = phi i8 [ %.pre, %11 ], [ %6, %4 ]
  %indvars.iv = phi i64 [ %indvars.iv.next, %11 ], [ 0, %4 ]
  %.1 = phi ptr [ %.2, %11 ], [ %spec.select, %4 ]
  switch i8 %9, label %11 [
    i8 0, label %12
    i8 59, label %10
    i8 35, label %10
  ]

10:                                               ; preds = %8, %8
  br label %11

11:                                               ; preds = %8, %10
  %.2 = phi ptr [ @.str.236, %10 ], [ %.1, %8 ]
  %indvars.iv.next = add nuw nsw i64 %indvars.iv, 1
  %.phi.trans.insert = getelementptr inbounds nuw i8, ptr %2, i64 %indvars.iv.next
  %.pre = load i8, ptr %.phi.trans.insert, align 1, !tbaa !4
  br label %8, !llvm.loop !155

12:                                               ; preds = %8
  %.not32 = icmp eq i64 %indvars.iv, 0
  br i1 %.not32, label %18, label %13

13:                                               ; preds = %12
  %14 = getelementptr inbounds nuw i8, ptr %2, i64 %indvars.iv
  %15 = getelementptr i8, ptr %14, i64 -1
  %16 = load i8, ptr %15, align 1, !tbaa !4
  %17 = icmp eq i8 %16, 32
  %spec.select35 = select i1 %17, ptr @.str.236, ptr %.1
  br label %18

18:                                               ; preds = %13, %12
  %.3 = phi ptr [ %.1, %12 ], [ %spec.select35, %13 ]
  %19 = getelementptr inbounds nuw i8, ptr %1, i64 %.0.val
  %20 = getelementptr inbounds nuw i8, ptr %19, i64 1
  call void (ptr, ptr, ...) @strbuf_addf(ptr noundef nonnull %5, ptr noundef nonnull @.str.237, ptr noundef nonnull %20, ptr noundef %.3) #30
  %21 = getelementptr inbounds nuw i8, ptr %5, i64 8
  %22 = getelementptr inbounds nuw i8, ptr %5, i64 16
  br label %23

23:                                               ; preds = %47, %18
  %indvars.iv3 = phi i64 [ %indvars.iv.next4, %47 ], [ 0, %18 ]
  %24 = getelementptr inbounds nuw i8, ptr %2, i64 %indvars.iv3
  %25 = load i8, ptr %24, align 1, !tbaa !4
  switch i8 %25, label %37 [
    i8 0, label %48
    i8 10, label %26
    i8 9, label %27
    i8 34, label %28
    i8 92, label %28
  ]

26:                                               ; preds = %23
  call void @strbuf_add(ptr noundef nonnull %5, ptr noundef nonnull @.str.238, i64 noundef 2) #30
  br label %47

27:                                               ; preds = %23
  call void @strbuf_add(ptr noundef nonnull %5, ptr noundef nonnull @.str.239, i64 noundef 2) #30
  br label %47

28:                                               ; preds = %23, %23
  %29 = load i64, ptr %5, align 8, !tbaa !7
  %.not.i.i = icmp eq i64 %29, 0
  br i1 %.not.i.i, label %strbuf_avail.exit.thread.i, label %strbuf_avail.exit.i

strbuf_avail.exit.i:                              ; preds = %28
  %30 = load i64, ptr %21, align 8, !tbaa !12
  %.neg.i = add i64 %30, 1
  %.not.i = icmp eq i64 %29, %.neg.i
  br i1 %.not.i, label %strbuf_avail.exit.thread.i, label %strbuf_addch.exit

strbuf_avail.exit.thread.i:                       ; preds = %strbuf_avail.exit.i, %28
  call void @strbuf_grow(ptr noundef nonnull %5, i64 noundef 1) #30
  %.pre.i = load i64, ptr %21, align 8, !tbaa !12
  %.pre7.i = add i64 %.pre.i, 1
  br label %strbuf_addch.exit

strbuf_addch.exit:                                ; preds = %strbuf_avail.exit.i, %strbuf_avail.exit.thread.i
  %.pre-phi.i = phi i64 [ %.pre7.i, %strbuf_avail.exit.thread.i ], [ %.neg.i, %strbuf_avail.exit.i ]
  %31 = phi i64 [ %.pre.i, %strbuf_avail.exit.thread.i ], [ %30, %strbuf_avail.exit.i ]
  %32 = load ptr, ptr %22, align 8, !tbaa !13
  store i64 %.pre-phi.i, ptr %21, align 8, !tbaa !12
  %33 = getelementptr inbounds nuw i8, ptr %32, i64 %31
  store i8 92, ptr %33, align 1, !tbaa !4
  %34 = load ptr, ptr %22, align 8, !tbaa !13
  %35 = load i64, ptr %21, align 8, !tbaa !12
  %36 = getelementptr inbounds nuw i8, ptr %34, i64 %35
  store i8 0, ptr %36, align 1, !tbaa !4
  %.pre6 = load i8, ptr %24, align 1, !tbaa !4
  br label %37

37:                                               ; preds = %23, %strbuf_addch.exit
  %38 = phi i8 [ %25, %23 ], [ %.pre6, %strbuf_addch.exit ]
  %39 = load i64, ptr %5, align 8, !tbaa !7
  %.not.i.i36 = icmp eq i64 %39, 0
  br i1 %.not.i.i36, label %strbuf_avail.exit.thread.i41, label %strbuf_avail.exit.i37

strbuf_avail.exit.i37:                            ; preds = %37
  %40 = load i64, ptr %21, align 8, !tbaa !12
  %.neg.i38 = add i64 %40, 1
  %.not.i39 = icmp eq i64 %39, %.neg.i38
  br i1 %.not.i39, label %strbuf_avail.exit.thread.i41, label %strbuf_addch.exit45

strbuf_avail.exit.thread.i41:                     ; preds = %strbuf_avail.exit.i37, %37
  call void @strbuf_grow(ptr noundef nonnull %5, i64 noundef 1) #30
  %.pre.i43 = load i64, ptr %21, align 8, !tbaa !12
  %.pre7.i44 = add i64 %.pre.i43, 1
  br label %strbuf_addch.exit45

strbuf_addch.exit45:                              ; preds = %strbuf_avail.exit.i37, %strbuf_avail.exit.thread.i41
  %.pre-phi.i40 = phi i64 [ %.pre7.i44, %strbuf_avail.exit.thread.i41 ], [ %.neg.i38, %strbuf_avail.exit.i37 ]
  %41 = phi i64 [ %.pre.i43, %strbuf_avail.exit.thread.i41 ], [ %40, %strbuf_avail.exit.i37 ]
  %42 = load ptr, ptr %22, align 8, !tbaa !13
  store i64 %.pre-phi.i40, ptr %21, align 8, !tbaa !12
  %43 = getelementptr inbounds nuw i8, ptr %42, i64 %41
  store i8 %38, ptr %43, align 1, !tbaa !4
  %44 = load ptr, ptr %22, align 8, !tbaa !13
  %45 = load i64, ptr %21, align 8, !tbaa !12
  %46 = getelementptr inbounds nuw i8, ptr %44, i64 %45
  store i8 0, ptr %46, align 1, !tbaa !4
  br label %47

47:                                               ; preds = %26, %27, %strbuf_addch.exit45
  %indvars.iv.next4 = add nuw nsw i64 %indvars.iv3, 1
  br label %23, !llvm.loop !156

48:                                               ; preds = %23
  %.not34 = icmp eq ptr %3, null
  br i1 %.not34, label %50, label %49

49:                                               ; preds = %48
  call void (ptr, ptr, ...) @strbuf_addf(ptr noundef nonnull %5, ptr noundef nonnull @.str.240, ptr noundef %.3, ptr noundef nonnull %3) #30
  br label %51

50:                                               ; preds = %48
  call void (ptr, ptr, ...) @strbuf_addf(ptr noundef nonnull %5, ptr noundef nonnull @.str.241, ptr noundef %.3) #30
  br label %51

51:                                               ; preds = %50, %49
  %52 = load ptr, ptr %22, align 8, !tbaa !13
  %53 = load i64, ptr %21, align 8, !tbaa !12
  %54 = call i64 @write_in_full(i32 noundef %0, ptr noundef %52, i64 noundef %53) #30
  call void @strbuf_release(ptr noundef nonnull %5) #30
  call void @llvm.lifetime.end.p0(i64 24, ptr nonnull %5) #30
  ret i64 %54
}